target datalayout = "e-m:e-p270:32:32-p271:32:32-p272:64:64-i64:64-i128:128-f80:128-n8:16:32:64-S128"
target triple = "x86_64-pc-linux-gnu"

%struct.BufFile = type { i32, ptr, i8, i8, i8, ptr, ptr, ptr, i32, i64, i32, i32, %union.PGAlignedBlock }
%union.PGAlignedBlock = type { double, [8184 x i8] }

; Function Attrs: nounwind uwtable
define dso_local void @BufFileTell(ptr noundef %0, ptr noundef %1, ptr noundef %2) #0 {
  %4 = alloca ptr, align 8
  %5 = alloca ptr, align 8
  %6 = alloca ptr, align 8
  store ptr %0, ptr %4, align 8
  store ptr %1, ptr %5, align 8
  store ptr %2, ptr %6, align 8
  %7 = load ptr, ptr %4, align 8
  %8 = getelementptr inbounds nuw %struct.BufFile, ptr %7, i32 0, i32 8
  %9 = load i32, ptr %8, align 8
  %10 = load ptr, ptr %5, align 8
  store i32 %9, ptr %10, align 4
  %11 = load ptr, ptr %4, align 8
  %12 = getelementptr inbounds nuw %struct.BufFile, ptr %11, i32 0, i32 9
  %13 = load i64, ptr %12, align 8
  %14 = load ptr, ptr %4, align 8
  %15 = getelementptr inbounds nuw %struct.BufFile, ptr %14, i32 0, i32 10
  %16 = load i32, ptr %15, align 8
  %17 = sext i32 %16 to i64
  %18 = add i64 %13, %17
  %19 = load ptr, ptr %6, align 8
  store i64 %18, ptr %19, align 8
  ret void
}