; Function Attrs: mustprogress nofree norecurse nosync nounwind willreturn memory(argmem: readwrite) uwtable
define dso_local void @BufFileTell(ptr noundef readonly captures(none) %0, ptr noundef writeonly captures(none) initializes((0, 4)) %1, ptr noundef writeonly captures(none) initializes((0, 8)) %2) local_unnamed_addr #5 {
  %4 = getelementptr inbounds nuw i8, ptr %0, i64 48
  %5 = load i32, ptr %4, align 8
  store i32 %5, ptr %1, align 4
  %6 = getelementptr inbounds nuw i8, ptr %0, i64 56
  %7 = load i64, ptr %6, align 8
  %8 = getelementptr inbounds nuw i8, ptr %0, i64 64
  %9 = load i32, ptr %8, align 8
  %10 = sext i32 %9 to i64
  %11 = add i64 %7, %10
  store i64 %11, ptr %2, align 8
  ret void
}